; Function Attrs: mustprogress uwtable
define hidden void @_ZN19OpenColorIO_v2_4dev12XmlFormatter11writeIndentEv(ptr nocapture noundef nonnull readonly align 8 dereferenceable(16) %this) local_unnamed_addr #3 align 2 {
entry:
  %m_indentLevel = getelementptr inbounds i8, ptr %this, i64 8
  %0 = load i32, ptr %m_indentLevel, align 8
  %cmp2 = icmp sgt i32 %0, 0
  br i1 %cmp2, label %for.body, label %for.end

for.body:                                         ; preds = %entry, %for.body
  %i.03 = phi i32 [ %inc, %for.body ], [ 0, %entry ]
  %1 = load ptr, ptr %this, align 8
  %call = tail call noundef nonnull align 8 dereferenceable(8) ptr @_ZStlsISt11char_traitsIcEERSt13basic_ostreamIcT_ES5_PKc(ptr noundef nonnull align 8 dereferenceable(8) %1, ptr noundef nonnull @.str.9)
  %inc = add nuw nsw i32 %i.03, 1
  %2 = load i32, ptr %m_indentLevel, align 8
  %cmp = icmp slt i32 %inc, %2
  br i1 %cmp, label %for.body, label %for.end, !llvm.loop !4

for.end:                                          ; preds = %for.body, %entry
  ret void
}